target datalayout = "e-m:e-p270:32:32-p271:32:32-p272:64:64-i64:64-i128:128-f80:128-n8:16:32:64-S128"
target triple = "x86_64-pc-linux-gnu"

%struct.strvec = type { ptr, i64, i64 }
%struct.strbuf = type { i64, i64, ptr }
%struct.am_state = type { ptr, i32, i32, ptr, ptr, ptr, ptr, i64, %struct.object_id, i32, i32, i32, i32, i32, i32, i32, i32, i32, i32, i32, i32, %struct.strvec, ptr, i32, i32, i32, ptr, i32 }
%struct.object_id = type { [32 x i8], i32 }
%struct.child_process = type { %struct.strvec, %struct.strvec, i32, i32, i64, ptr, ptr, i32, i32, i32, ptr, i16, ptr }

@__const.split_mail_mbox.last = private unnamed_addr constant %struct.strbuf { i64 0, i64 0, ptr @strbuf_slopbuf }, align 8
@.str.155 = private unnamed_addr constant [10 x i8] c"mailsplit\00", align 1
@.str.156 = private unnamed_addr constant [5 x i8] c"-d%d\00", align 1
@.str.157 = private unnamed_addr constant [5 x i8] c"-o%s\00", align 1
@.str.158 = private unnamed_addr constant [3 x i8] c"-b\00", align 1
@.str.159 = private unnamed_addr constant [10 x i8] c"--keep-cr\00", align 1
@.str.160 = private unnamed_addr constant [9 x i8] c"--mboxrd\00", align 1
@.str.161 = private unnamed_addr constant [3 x i8] c"--\00", align 1

; Function Attrs: inlinehint nounwind uwtable
define internal i32 @capture_command(ptr noundef %0, ptr noundef %1, i64 noundef %2) #5 {
  %4 = alloca ptr, align 8
  %5 = alloca ptr, align 8
  %6 = alloca i64, align 8
  store ptr %0, ptr %4, align 8, !tbaa !114
  store ptr %1, ptr %5, align 8, !tbaa !98
  store i64 %2, ptr %6, align 8, !tbaa !103
  %7 = load ptr, ptr %4, align 8, !tbaa !114
  %8 = load ptr, ptr %5, align 8, !tbaa !98
  %9 = load i64, ptr %6, align 8, !tbaa !103
  %10 = call i32 @pipe_command(ptr noundef %7, ptr noundef null, i64 noundef 0, ptr noundef %8, i64 noundef %9, ptr noundef null, i64 noundef 0)
  ret i32 %10
}

; Function Attrs: nounwind uwtable
define internal i32 @split_mail_mbox(ptr noundef %0, ptr noundef %1, i32 noundef %2, i32 noundef %3) #0 {
  %5 = alloca ptr, align 8
  %6 = alloca ptr, align 8
  %7 = alloca i32, align 4
  %8 = alloca i32, align 4
  %9 = alloca %struct.child_process, align 8
  %10 = alloca %struct.strbuf, align 8
  %11 = alloca i32, align 4
  store ptr %0, ptr %5, align 8, !tbaa !47
  store ptr %1, ptr %6, align 8, !tbaa !8
  store i32 %2, ptr %7, align 4, !tbaa !4
  store i32 %3, ptr %8, align 4, !tbaa !4
  call void @llvm.lifetime.start.p0(i64 120, ptr %9) #14
  call void @llvm.memcpy.p0.p0.i64(ptr align 8 %9, ptr align 8 @__const.split_mail_mbox.cp, i64 120, i1 false)
  call void @llvm.lifetime.start.p0(i64 24, ptr %10) #14
  call void @llvm.memcpy.p0.p0.i64(ptr align 8 %10, ptr align 8 @__const.split_mail_mbox.last, i64 24, i1 false)
  call void @llvm.lifetime.start.p0(i64 4, ptr %11) #14
  %12 = getelementptr inbounds nuw %struct.child_process, ptr %9, i32 0, i32 11
  %13 = load i16, ptr %12, align 8
  %14 = and i16 %13, -9
  %15 = or i16 %14, 8
  store i16 %15, ptr %12, align 8
  %16 = getelementptr inbounds nuw %struct.child_process, ptr %9, i32 0, i32 0
  %17 = call ptr @strvec_push(ptr noundef %16, ptr noundef @.str.155)
  %18 = getelementptr inbounds nuw %struct.child_process, ptr %9, i32 0, i32 0
  %19 = load ptr, ptr %5, align 8, !tbaa !47
  %20 = getelementptr inbounds nuw %struct.am_state, ptr %19, i32 0, i32 9
  %21 = load i32, ptr %20, align 4, !tbaa !49
  %22 = call ptr (ptr, ptr, ...) @strvec_pushf(ptr noundef %18, ptr noundef @.str.156, i32 noundef %21)
  %23 = getelementptr inbounds nuw %struct.child_process, ptr %9, i32 0, i32 0
  %24 = load ptr, ptr %5, align 8, !tbaa !47
  %25 = getelementptr inbounds nuw %struct.am_state, ptr %24, i32 0, i32 0
  %26 = load ptr, ptr %25, align 8, !tbaa !31
  %27 = call ptr (ptr, ptr, ...) @strvec_pushf(ptr noundef %23, ptr noundef @.str.157, ptr noundef %26)
  %28 = getelementptr inbounds nuw %struct.child_process, ptr %9, i32 0, i32 0
  %29 = call ptr @strvec_push(ptr noundef %28, ptr noundef @.str.158)
  %30 = load i32, ptr %7, align 4, !tbaa !4
  %31 = icmp ne i32 %30, 0
  br i1 %31, label %32, label %35

32:                                               ; preds = %4
  %33 = getelementptr inbounds nuw %struct.child_process, ptr %9, i32 0, i32 0
  %34 = call ptr @strvec_push(ptr noundef %33, ptr noundef @.str.159)
  br label %35

35:                                               ; preds = %32, %4
  %36 = load i32, ptr %8, align 4, !tbaa !4
  %37 = icmp ne i32 %36, 0
  br i1 %37, label %38, label %41

38:                                               ; preds = %35
  %39 = getelementptr inbounds nuw %struct.child_process, ptr %9, i32 0, i32 0
  %40 = call ptr @strvec_push(ptr noundef %39, ptr noundef @.str.160)
  br label %41

41:                                               ; preds = %38, %35
  %42 = getelementptr inbounds nuw %struct.child_process, ptr %9, i32 0, i32 0
  %43 = call ptr @strvec_push(ptr noundef %42, ptr noundef @.str.161)
  %44 = getelementptr inbounds nuw %struct.child_process, ptr %9, i32 0, i32 0
  %45 = load ptr, ptr %6, align 8, !tbaa !8
  call void @strvec_pushv(ptr noundef %44, ptr noundef %45)
  %46 = call i32 @capture_command(ptr noundef %9, ptr noundef %10, i64 noundef 8)
  store i32 %46, ptr %11, align 4, !tbaa !4
  %47 = load i32, ptr %11, align 4, !tbaa !4
  %48 = icmp ne i32 %47, 0
  br i1 %48, label %49, label %50

49:                                               ; preds = %41
  br label %59

50:                                               ; preds = %41
  %51 = load ptr, ptr %5, align 8, !tbaa !47
  %52 = getelementptr inbounds nuw %struct.am_state, ptr %51, i32 0, i32 1
  store i32 1, ptr %52, align 8, !tbaa !59
  %53 = getelementptr inbounds nuw %struct.strbuf, ptr %10, i32 0, i32 2
  %54 = load ptr, ptr %53, align 8, !tbaa !57
  %55 = call i64 @strtol(ptr noundef %54, ptr noundef null, i32 noundef 10) #14
  %56 = trunc i64 %55 to i32
  %57 = load ptr, ptr %5, align 8, !tbaa !47
  %58 = getelementptr inbounds nuw %struct.am_state, ptr %57, i32 0, i32 2
  store i32 %56, ptr %58, align 4, !tbaa !60
  br label %59

59:                                               ; preds = %50, %49
  call void @strbuf_release(ptr noundef %10)
  %60 = load i32, ptr %11, align 4, !tbaa !4
  %61 = icmp ne i32 %60, 0
  %62 = select i1 %61, i32 -1, i32 0
  call void @llvm.lifetime.end.p0(i64 4, ptr %11) #14
  call void @llvm.lifetime.end.p0(i64 24, ptr %10) #14
  call void @llvm.lifetime.end.p0(i64 120, ptr %9) #14
  ret i32 %62
}