; Function Attrs: nounwind uwtable
define internal fastcc range(i32 -1, 1) i32 @split_mail_mbox(ptr noundef nonnull captures(none) %0, ptr noundef %1, i32 noundef %2, i32 noundef range(i32 0, 2) %3) unnamed_addr #0 {
  %5 = alloca %struct.child_process, align 8
  %6 = alloca %struct.strbuf, align 8
  call void @llvm.lifetime.start.p0(i64 120, ptr nonnull %5) #21
  call void @llvm.memcpy.p0.p0.i64(ptr noundef nonnull align 8 dereferenceable(120) %5, ptr noundef nonnull align 8 dereferenceable(120) @__const.show_patch.cmd, i64 120, i1 false)
  call void @llvm.lifetime.start.p0(i64 24, ptr nonnull %6) #21
  call void @llvm.memcpy.p0.p0.i64(ptr noundef nonnull align 8 dereferenceable(24) %6, ptr noundef nonnull align 8 dereferenceable(24) @__const.show_patch.sb, i64 24, i1 false)
  %7 = getelementptr inbounds nuw i8, ptr %5, i64 104
  store i16 8, ptr %7, align 8
  %8 = call ptr @strvec_push(ptr noundef nonnull %5, ptr noundef nonnull @.str.155) #21
  %9 = getelementptr inbounds nuw i8, ptr %0, i64 92
  %10 = load i32, ptr %9, align 4, !tbaa !28
  %11 = call ptr (ptr, ptr, ...) @strvec_pushf(ptr noundef nonnull %5, ptr noundef nonnull @.str.156, i32 noundef %10) #21
  %12 = load ptr, ptr %0, align 8, !tbaa !23
  %13 = call ptr (ptr, ptr, ...) @strvec_pushf(ptr noundef nonnull %5, ptr noundef nonnull @.str.157, ptr noundef %12) #21
  %14 = call ptr @strvec_push(ptr noundef nonnull %5, ptr noundef nonnull @.str.158) #21
  %.not = icmp eq i32 %2, 0
  br i1 %.not, label %17, label %15

15:                                               ; preds = %4
  %16 = call ptr @strvec_push(ptr noundef nonnull %5, ptr noundef nonnull @.str.159) #21
  br label %17

17:                                               ; preds = %15, %4
  %.not8 = icmp eq i32 %3, 0
  br i1 %.not8, label %20, label %18

18:                                               ; preds = %17
  %19 = call ptr @strvec_push(ptr noundef nonnull %5, ptr noundef nonnull @.str.160) #21
  br label %20

20:                                               ; preds = %18, %17
  %21 = call ptr @strvec_push(ptr noundef nonnull %5, ptr noundef nonnull @.str.161) #21
  call void @strvec_pushv(ptr noundef nonnull %5, ptr noundef %1) #21
  %22 = call i32 @pipe_command(ptr noundef nonnull %5, ptr noundef null, i64 noundef 0, ptr noundef nonnull %6, i64 noundef 8, ptr noundef null, i64 noundef 0) #21
  %.not9 = icmp ne i32 %22, 0
  br i1 %.not9, label %30, label %23

23:                                               ; preds = %20
  %24 = getelementptr inbounds nuw i8, ptr %0, i64 8
  store i32 1, ptr %24, align 8, !tbaa !62
  %25 = getelementptr inbounds nuw i8, ptr %6, i64 16
  %26 = load ptr, ptr %25, align 8, !tbaa !51
  %27 = call i64 @strtol(ptr noundef captures(none) %26, ptr noundef null, i32 noundef 10) #21
  %28 = trunc i64 %27 to i32
  %29 = getelementptr inbounds nuw i8, ptr %0, i64 12
  store i32 %28, ptr %29, align 4, !tbaa !63
  br label %30

30:                                               ; preds = %20, %23
  call void @strbuf_release(ptr noundef nonnull %6) #21
  %31 = sext i1 %.not9 to i32
  call void @llvm.lifetime.end.p0(i64 24, ptr nonnull %6) #21
  call void @llvm.lifetime.end.p0(i64 120, ptr nonnull %5) #21
  ret i32 %31
}